target datalayout = "e-m:e-p270:32:32-p271:32:32-p272:64:64-i64:64-i128:128-f80:128-n8:16:32:64-S128"
target triple = "x86_64-pc-linux-gnu"

%"class.boost::container::pmr::pool_resource" = type { %"struct.boost::container::pmr::pool_options", ptr, %"class.boost::container::pmr::block_list_base", ptr, i64 }
%"struct.boost::container::pmr::pool_options" = type { i64, i64 }
%"class.boost::container::pmr::block_list_base" = type { %"struct.boost::container::pmr::list_node" }
%"struct.boost::container::pmr::list_node" = type { ptr, ptr }

; Function Attrs: mustprogress nounwind uwtable
define linkonce_odr hidden noundef i64 @_ZN5boost9intrusive6detail20builtin_clz_dispatchImE4callEm(i64 noundef %0) #1 comdat align 2 {
  %2 = alloca i64, align 8
  store i64 %0, ptr %2, align 8, !tbaa !7
  %3 = load i64, ptr %2, align 8, !tbaa !7
  %4 = call i64 @llvm.ctlz.i64(i64 %3, i1 true)
  %5 = trunc i64 %4 to i32
  %6 = sext i32 %5 to i64
  ret i64 %6
}

; Function Attrs: inlinehint mustprogress uwtable
define linkonce_odr hidden noundef i64 @_ZN5boost9intrusive6detail10floor_log2Em(i64 noundef %0) #2 comdat {
  %2 = alloca i64, align 8
  store i64 %0, ptr %2, align 8, !tbaa !7
  %3 = load i64, ptr %2, align 8, !tbaa !7
  %4 = call noundef i64 @_ZN5boost9intrusive6detail20builtin_clz_dispatchImE4callEm(i64 noundef %3)
  %5 = sub i64 63, %4
  ret i64 %5
}

; Function Attrs: inlinehint mustprogress nounwind uwtable
define linkonce_odr hidden noundef zeroext i1 @_ZN5boost9intrusive6detail7is_pow2Em(i64 noundef %0) #4 comdat {
  %2 = alloca i64, align 8
  store i64 %0, ptr %2, align 8, !tbaa !7
  %3 = load i64, ptr %2, align 8, !tbaa !7
  %4 = load i64, ptr %2, align 8, !tbaa !7
  %5 = sub i64 %4, 1
  %6 = and i64 %3, %5
  %7 = icmp eq i64 %6, 0
  ret i1 %7
}

; Function Attrs: inlinehint mustprogress uwtable
define linkonce_odr hidden noundef i64 @_ZN5boost9intrusive6detail9ceil_log2Em(i64 noundef %0) #2 comdat {
  %2 = alloca i64, align 8
  store i64 %0, ptr %2, align 8, !tbaa !7
  %3 = load i64, ptr %2, align 8, !tbaa !7
  %4 = call noundef zeroext i1 @_ZN5boost9intrusive6detail7is_pow2Em(i64 noundef %3)
  %5 = xor i1 %4, true
  %6 = zext i1 %5 to i64
  %7 = load i64, ptr %2, align 8, !tbaa !7
  %8 = call noundef i64 @_ZN5boost9intrusive6detail10floor_log2Em(i64 noundef %7)
  %9 = add i64 %6, %8
  ret i64 %9
}

; Function Attrs: mustprogress nounwind uwtable
define linkonce_odr hidden noundef nonnull align 8 dereferenceable(8) ptr @_ZN5boost9container3dtl9min_valueImEERKT_S5_S5_(ptr noundef nonnull align 8 dereferenceable(8) %0, ptr noundef nonnull align 8 dereferenceable(8) %1) #1 comdat {
  %3 = alloca ptr, align 8
  %4 = alloca ptr, align 8
  store ptr %0, ptr %3, align 8, !tbaa !3
  store ptr %1, ptr %4, align 8, !tbaa !3
  %5 = load ptr, ptr %3, align 8, !tbaa !3
  %6 = load i64, ptr %5, align 8, !tbaa !7
  %7 = load ptr, ptr %4, align 8, !tbaa !3
  %8 = load i64, ptr %7, align 8, !tbaa !7
  %9 = icmp ult i64 %6, %8
  br i1 %9, label %10, label %12

10:                                               ; preds = %2
  %11 = load ptr, ptr %3, align 8, !tbaa !3
  br label %14

12:                                               ; preds = %2
  %13 = load ptr, ptr %4, align 8, !tbaa !3
  br label %14

14:                                               ; preds = %12, %10
  %15 = phi ptr [ %11, %10 ], [ %13, %12 ]
  ret ptr %15
}

; Function Attrs: inlinehint mustprogress uwtable
define linkonce_odr hidden noundef i64 @_ZN5boost9intrusive6detail9ceil_pow2Em(i64 noundef %0) #2 comdat {
  %2 = alloca i64, align 8
  store i64 %0, ptr %2, align 8, !tbaa !7
  %3 = load i64, ptr %2, align 8, !tbaa !7
  %4 = call noundef i64 @_ZN5boost9intrusive6detail9ceil_log2Em(i64 noundef %3)
  %5 = shl i64 1, %4
  ret i64 %5
}

; Function Attrs: mustprogress uwtable
define hidden void @_ZN5boost9container3pmr13pool_resource17priv_limit_optionERmmm(ptr noundef nonnull align 8 dereferenceable(8) %0, i64 noundef %1, i64 noundef %2) #0 align 2 {
  %4 = alloca ptr, align 8
  %5 = alloca i64, align 8
  %6 = alloca i64, align 8
  store ptr %0, ptr %4, align 8, !tbaa !3
  store i64 %1, ptr %5, align 8, !tbaa !7
  store i64 %2, ptr %6, align 8, !tbaa !7
  %7 = load ptr, ptr %4, align 8, !tbaa !3
  %8 = load i64, ptr %7, align 8, !tbaa !7
  %9 = icmp ne i64 %8, 0
  br i1 %9, label %13, label %10

10:                                               ; preds = %3
  %11 = load i64, ptr %6, align 8, !tbaa !7
  %12 = load ptr, ptr %4, align 8, !tbaa !3
  store i64 %11, ptr %12, align 8, !tbaa !7
  br label %27

13:                                               ; preds = %3
  %14 = load ptr, ptr %4, align 8, !tbaa !3
  %15 = load i64, ptr %14, align 8, !tbaa !7
  %16 = load i64, ptr %5, align 8, !tbaa !7
  %17 = icmp ult i64 %15, %16
  br i1 %17, label %18, label %20

18:                                               ; preds = %13
  %19 = load i64, ptr %5, align 8, !tbaa !7
  br label %24

20:                                               ; preds = %13
  %21 = load ptr, ptr %4, align 8, !tbaa !3
  %22 = call noundef nonnull align 8 dereferenceable(8) ptr @_ZN5boost9container3dtl9min_valueImEERKT_S5_S5_(ptr noundef nonnull align 8 dereferenceable(8) %21, ptr noundef nonnull align 8 dereferenceable(8) %6)
  %23 = load i64, ptr %22, align 8, !tbaa !7
  br label %24

24:                                               ; preds = %20, %18
  %25 = phi i64 [ %19, %18 ], [ %23, %20 ]
  %26 = load ptr, ptr %4, align 8, !tbaa !3
  store i64 %25, ptr %26, align 8, !tbaa !7
  br label %27

27:                                               ; preds = %24, %10
  ret void
}

; Function Attrs: mustprogress nounwind uwtable
define linkonce_odr hidden void @_ZN5boost9container3pmr16list_node_traits12set_previousERKPNS1_9list_nodeES6_(ptr noundef nonnull align 8 dereferenceable(8) %0, ptr noundef nonnull align 8 dereferenceable(8) %1) #1 comdat align 2 {
  %3 = alloca ptr, align 8
  %4 = alloca ptr, align 8
  store ptr %0, ptr %3, align 8, !tbaa !3
  store ptr %1, ptr %4, align 8, !tbaa !3
  %5 = load ptr, ptr %4, align 8, !tbaa !3
  %6 = load ptr, ptr %5, align 8, !tbaa !3
  %7 = load ptr, ptr %3, align 8, !tbaa !3
  %8 = load ptr, ptr %7, align 8, !tbaa !3
  %9 = getelementptr inbounds nuw %"struct.boost::container::pmr::list_node", ptr %8, i32 0, i32 1
  store ptr %6, ptr %9, align 8, !tbaa !44
  ret void
}

; Function Attrs: mustprogress nounwind uwtable
define linkonce_odr hidden void @_ZN5boost9container3pmr16list_node_traits8set_nextERKPNS1_9list_nodeES6_(ptr noundef nonnull align 8 dereferenceable(8) %0, ptr noundef nonnull align 8 dereferenceable(8) %1) #1 comdat align 2 {
  %3 = alloca ptr, align 8
  %4 = alloca ptr, align 8
  store ptr %0, ptr %3, align 8, !tbaa !3
  store ptr %1, ptr %4, align 8, !tbaa !3
  %5 = load ptr, ptr %4, align 8, !tbaa !3
  %6 = load ptr, ptr %5, align 8, !tbaa !3
  %7 = load ptr, ptr %3, align 8, !tbaa !3
  %8 = load ptr, ptr %7, align 8, !tbaa !3
  %9 = getelementptr inbounds nuw %"struct.boost::container::pmr::list_node", ptr %8, i32 0, i32 0
  store ptr %6, ptr %9, align 8, !tbaa !43
  ret void
}

; Function Attrs: mustprogress uwtable
define hidden void @_ZN5boost9container3pmr13pool_resource16priv_fix_optionsEv(ptr noundef nonnull align 8 dereferenceable(56) %0) #0 align 2 {
  %2 = alloca ptr, align 8
  store ptr %0, ptr %2, align 8, !tbaa !3
  %3 = load ptr, ptr %2, align 8
  %4 = getelementptr inbounds nuw %"class.boost::container::pmr::pool_resource", ptr %3, i32 0, i32 0
  %5 = getelementptr inbounds nuw %"struct.boost::container::pmr::pool_options", ptr %4, i32 0, i32 0
  call void @_ZN5boost9container3pmr13pool_resource17priv_limit_optionERmmm(ptr noundef nonnull align 8 dereferenceable(8) %5, i64 noundef 1, i64 noundef 32)
  %6 = getelementptr inbounds nuw %"class.boost::container::pmr::pool_resource", ptr %3, i32 0, i32 0
  %7 = getelementptr inbounds nuw %"struct.boost::container::pmr::pool_options", ptr %6, i32 0, i32 1
  call void @_ZN5boost9container3pmr13pool_resource17priv_limit_optionERmmm(ptr noundef nonnull align 8 dereferenceable(8) %7, i64 noundef 16, i64 noundef 4096)
  %8 = getelementptr inbounds nuw %"class.boost::container::pmr::pool_resource", ptr %3, i32 0, i32 0
  %9 = getelementptr inbounds nuw %"struct.boost::container::pmr::pool_options", ptr %8, i32 0, i32 1
  %10 = load i64, ptr %9, align 8, !tbaa !9
  %11 = call noundef i64 @_ZN5boost9intrusive6detail9ceil_pow2Em(i64 noundef %10)
  %12 = getelementptr inbounds nuw %"class.boost::container::pmr::pool_resource", ptr %3, i32 0, i32 0
  %13 = getelementptr inbounds nuw %"struct.boost::container::pmr::pool_options", ptr %12, i32 0, i32 1
  store i64 %11, ptr %13, align 8, !tbaa !9
  ret void
}

; Function Attrs: mustprogress nounwind uwtable
define linkonce_odr hidden void @_ZN5boost9intrusive24circular_list_algorithmsINS_9container3pmr16list_node_traitsEE11init_headerEPNS3_9list_nodeE(ptr noundef %0) #1 comdat align 2 personality ptr @__gxx_personality_v0 {
  %2 = alloca ptr, align 8
  store ptr %0, ptr %2, align 8, !tbaa !3
  invoke void @_ZN5boost9container3pmr16list_node_traits8set_nextERKPNS1_9list_nodeES6_(ptr noundef nonnull align 8 dereferenceable(8) %2, ptr noundef nonnull align 8 dereferenceable(8) %2)
          to label %3 unwind label %5

3:                                                ; preds = %1
  invoke void @_ZN5boost9container3pmr16list_node_traits12set_previousERKPNS1_9list_nodeES6_(ptr noundef nonnull align 8 dereferenceable(8) %2, ptr noundef nonnull align 8 dereferenceable(8) %2)
          to label %4 unwind label %5

4:                                                ; preds = %3
  ret void

5:                                                ; preds = %3, %1
  %6 = landingpad { ptr, i32 }
          catch ptr null
  %7 = extractvalue { ptr, i32 } %6, 0
  call void @__clang_call_terminate(ptr %7) #14
  unreachable
}

; Function Attrs: noinline noreturn nounwind uwtable
define linkonce_odr hidden void @__clang_call_terminate(ptr noundef %0) #6 comdat {
  %2 = call ptr @__cxa_begin_catch(ptr %0) #13
  call void @_ZSt9terminatev() #14
  unreachable
}

; Function Attrs: mustprogress uwtable
define hidden void @_ZN5boost9container3pmr13pool_resource21priv_constructor_bodyEv(ptr noundef nonnull align 8 dereferenceable(56) %0) #0 align 2 {
  %2 = alloca ptr, align 8
  store ptr %0, ptr %2, align 8, !tbaa !3
  %3 = load ptr, ptr %2, align 8
  call void @_ZN5boost9container3pmr13pool_resource16priv_fix_optionsEv(ptr noundef nonnull align 8 dereferenceable(56) %3)
  ret void
}

; Function Attrs: mustprogress nounwind uwtable
define linkonce_odr hidden void @_ZN5boost9container3pmr15block_list_baseINS1_17block_list_headerEEC2Ev(ptr noundef nonnull align 8 dereferenceable(16) %0) unnamed_addr #1 comdat align 2 {
  %2 = alloca ptr, align 8
  store ptr %0, ptr %2, align 8, !tbaa !3
  %3 = load ptr, ptr %2, align 8
  %4 = getelementptr inbounds nuw %"class.boost::container::pmr::block_list_base", ptr %3, i32 0, i32 0
  call void @_ZN5boost9intrusive24circular_list_algorithmsINS_9container3pmr16list_node_traitsEE11init_headerEPNS3_9list_nodeE(ptr noundef %4) #13
  ret void
}

; Function Attrs: mustprogress nounwind uwtable
define hidden void @_ZN5boost9container3pmr13pool_resourceC2ERKNS1_12pool_optionsEPNS1_15memory_resourceE(ptr noundef nonnull align 8 dereferenceable(56) %0, ptr noundef nonnull align 8 dereferenceable(16) %1, ptr noundef %2) unnamed_addr #1 align 2 personality ptr @__gxx_personality_v0 {
  %4 = alloca ptr, align 8
  %5 = alloca ptr, align 8
  %6 = alloca ptr, align 8
  store ptr %0, ptr %4, align 8, !tbaa !3
  store ptr %1, ptr %5, align 8, !tbaa !3
  store ptr %2, ptr %6, align 8, !tbaa !3
  %7 = load ptr, ptr %4, align 8
  %8 = getelementptr inbounds nuw %"class.boost::container::pmr::pool_resource", ptr %7, i32 0, i32 0
  %9 = load ptr, ptr %5, align 8, !tbaa !3
  call void @llvm.memcpy.p0.p0.i64(ptr align 8 %8, ptr align 8 %9, i64 16, i1 false), !tbaa.struct !25
  %10 = getelementptr inbounds nuw %"class.boost::container::pmr::pool_resource", ptr %7, i32 0, i32 1
  %11 = load ptr, ptr %6, align 8, !tbaa !3
  store ptr %11, ptr %10, align 8, !tbaa !3
  %12 = getelementptr inbounds nuw %"class.boost::container::pmr::pool_resource", ptr %7, i32 0, i32 2
  invoke void @_ZN5boost9container3pmr15block_list_baseINS1_17block_list_headerEEC2Ev(ptr noundef nonnull align 8 dereferenceable(16) %12)
          to label %13 unwind label %17

13:                                               ; preds = %3
  %14 = getelementptr inbounds nuw %"class.boost::container::pmr::pool_resource", ptr %7, i32 0, i32 3
  store ptr null, ptr %14, align 8, !tbaa !15
  %15 = getelementptr inbounds nuw %"class.boost::container::pmr::pool_resource", ptr %7, i32 0, i32 4
  store i64 0, ptr %15, align 8, !tbaa !18
  invoke void @_ZN5boost9container3pmr13pool_resource21priv_constructor_bodyEv(ptr noundef nonnull align 8 dereferenceable(56) %7)
          to label %16 unwind label %17

16:                                               ; preds = %13
  ret void

17:                                               ; preds = %13, %3
  %18 = landingpad { ptr, i32 }
          catch ptr null
  %19 = extractvalue { ptr, i32 } %18, 0
  call void @__clang_call_terminate(ptr %19) #14
  unreachable
}