; Function Attrs: mustprogress nofree norecurse nosync nounwind willreturn memory(argmem: readwrite) uwtable
define hidden void @_ZN5boost9container3pmr13pool_resourceC2ERKNS1_12pool_optionsEPNS1_15memory_resourceE(ptr noundef nonnull align 8 dereferenceable(56) %0, ptr nocapture noundef nonnull readonly align 8 dereferenceable(16) %1, ptr noundef %2) unnamed_addr #0 align 2 personality ptr @__gxx_personality_v0 {
  tail call void @llvm.memcpy.p0.p0.i64(ptr noundef nonnull align 8 dereferenceable(16) %0, ptr noundef nonnull align 8 dereferenceable(16) %1, i64 16, i1 false), !tbaa.struct !25
  %4 = getelementptr inbounds nuw i8, ptr %0, i64 16
  store ptr %2, ptr %4, align 8, !tbaa !26
  %5 = getelementptr inbounds nuw i8, ptr %0, i64 24
  store ptr %5, ptr %5, align 8, !tbaa !27
  %6 = getelementptr inbounds nuw i8, ptr %0, i64 32
  store ptr %5, ptr %6, align 8, !tbaa !28
  %7 = getelementptr inbounds nuw i8, ptr %0, i64 40
  tail call void @llvm.memset.p0.i64(ptr noundef nonnull align 8 dereferenceable(16) %7, i8 0, i64 16, i1 false)
  %8 = load i64, ptr %0, align 8, !tbaa !3
  %.not.i.i.i = icmp eq i64 %8, 0
  %.sroa.speculated.i.i.i = tail call i64 @llvm.umin.i64(i64 %8, i64 32)
  %storemerge.i.i.i = select i1 %.not.i.i.i, i64 32, i64 %.sroa.speculated.i.i.i
  store i64 %storemerge.i.i.i, ptr %0, align 8, !tbaa !3
  %9 = getelementptr inbounds nuw i8, ptr %0, i64 8
  %10 = load i64, ptr %9, align 8, !tbaa !3
  %.not.i1.i.i = icmp eq i64 %10, 0
  br i1 %.not.i1.i.i, label %15, label %11

11:                                               ; preds = %3
  %12 = icmp ult i64 %10, 16
  br i1 %12, label %15, label %13

13:                                               ; preds = %11
  %.sroa.speculated.i2.i.i = tail call i64 @llvm.umin.i64(i64 %10, i64 4096)
  %14 = add nsw i64 %.sroa.speculated.i2.i.i, -1
  br label %15

15:                                               ; preds = %13, %11, %3
  %storemerge.i3.i.i = phi i64 [ 4095, %3 ], [ %14, %13 ], [ 15, %11 ]
  %16 = tail call range(i64 0, 65) i64 @llvm.ctlz.i64(i64 %storemerge.i3.i.i, i1 false)
  %17 = sub nuw nsw i64 64, %16
  %18 = shl nuw nsw i64 1, %17
  store i64 %18, ptr %9, align 8, !tbaa !7
  ret void
}